target datalayout = "e-m:e-p270:32:32-p271:32:32-p272:64:64-i64:64-i128:128-f80:128-n8:16:32:64-S128"
target triple = "x86_64-pc-linux-gnu"

%struct.H5O_drvinfo_t = type { %struct.H5C_cache_entry_t, [9 x i8], i64, ptr }
%struct.H5C_cache_entry_t = type { ptr, i64, i64, ptr, i8, ptr, i8, i8, i8, i8, i32, i8, i8, i8, i8, i8, i32, ptr, i32, i32, i32, i32, i32, i8, i8, ptr, ptr, ptr, ptr, ptr, ptr, i8, i32, i8, i64, ptr, i64, i64, i32, i8, i32, i32, i8, ptr, ptr, ptr }

@H5O_init_g = external global i8, align 1
@H5_libterm_g = external global i8, align 1

; Function Attrs: nounwind uwtable
define internal i32 @H5O__drvinfo_encode(ptr noundef %0, i1 noundef zeroext %1, i64 noundef %2, ptr noundef %3, ptr noundef %4) #0 {
  %6 = alloca ptr, align 8
  %7 = alloca i8, align 1
  %8 = alloca i64, align 8
  %9 = alloca ptr, align 8
  %10 = alloca ptr, align 8
  %11 = alloca ptr, align 8
  store ptr %0, ptr %6, align 8, !tbaa !3
  %12 = zext i1 %1 to i8
  store i8 %12, ptr %7, align 1, !tbaa !21
  store i64 %2, ptr %8, align 8, !tbaa !14
  store ptr %3, ptr %9, align 8, !tbaa !16
  store ptr %4, ptr %10, align 8, !tbaa !20
  call void @llvm.lifetime.start.p0(i64 8, ptr %11) #8
  %13 = load ptr, ptr %10, align 8, !tbaa !20
  store ptr %13, ptr %11, align 8, !tbaa !18
  %14 = load i8, ptr @H5O_init_g, align 1, !tbaa !21, !range !23, !noundef !24
  %15 = trunc i8 %14 to i1
  br i1 %15, label %20, label %16

16:                                               ; preds = %5
  %17 = load i8, ptr @H5_libterm_g, align 1, !tbaa !21, !range !23, !noundef !24
  %18 = trunc i8 %17 to i1
  %19 = xor i1 %18, true
  br label %20

20:                                               ; preds = %16, %5
  %21 = phi i1 [ true, %5 ], [ %19, %16 ]
  %22 = xor i1 %21, true
  %23 = xor i1 %22, true
  %24 = zext i1 %23 to i32
  %25 = sext i32 %24 to i64
  %26 = call i64 @llvm.expect.i64(i64 %25, i64 1)
  %27 = icmp ne i64 %26, 0
  br i1 %27, label %28, label %66

28:                                               ; preds = %20
  %29 = load ptr, ptr %9, align 8, !tbaa !16
  %30 = getelementptr inbounds nuw i8, ptr %29, i32 1
  store ptr %30, ptr %9, align 8, !tbaa !16
  store i8 0, ptr %29, align 1, !tbaa !25
  %31 = load ptr, ptr %9, align 8, !tbaa !16
  %32 = load ptr, ptr %11, align 8, !tbaa !18
  %33 = getelementptr inbounds nuw %struct.H5O_drvinfo_t, ptr %32, i32 0, i32 1
  %34 = getelementptr inbounds [9 x i8], ptr %33, i64 0, i64 0
  call void @llvm.memcpy.p0.p0.i64(ptr align 1 %31, ptr align 8 %34, i64 8, i1 false)
  %35 = load ptr, ptr %9, align 8, !tbaa !16
  %36 = getelementptr inbounds i8, ptr %35, i64 8
  store ptr %36, ptr %9, align 8, !tbaa !16
  br label %37

37:                                               ; preds = %28
  %38 = load ptr, ptr %11, align 8, !tbaa !18
  %39 = getelementptr inbounds nuw %struct.H5O_drvinfo_t, ptr %38, i32 0, i32 2
  %40 = load i64, ptr %39, align 8, !tbaa !26
  %41 = trunc i64 %40 to i32
  %42 = and i32 %41, 255
  %43 = trunc i32 %42 to i8
  %44 = load ptr, ptr %9, align 8, !tbaa !16
  store i8 %43, ptr %44, align 1, !tbaa !25
  %45 = load ptr, ptr %9, align 8, !tbaa !16
  %46 = getelementptr inbounds nuw i8, ptr %45, i32 1
  store ptr %46, ptr %9, align 8, !tbaa !16
  %47 = load ptr, ptr %11, align 8, !tbaa !18
  %48 = getelementptr inbounds nuw %struct.H5O_drvinfo_t, ptr %47, i32 0, i32 2
  %49 = load i64, ptr %48, align 8, !tbaa !26
  %50 = trunc i64 %49 to i32
  %51 = lshr i32 %50, 8
  %52 = and i32 %51, 255
  %53 = trunc i32 %52 to i8
  %54 = load ptr, ptr %9, align 8, !tbaa !16
  store i8 %53, ptr %54, align 1, !tbaa !25
  %55 = load ptr, ptr %9, align 8, !tbaa !16
  %56 = getelementptr inbounds nuw i8, ptr %55, i32 1
  store ptr %56, ptr %9, align 8, !tbaa !16
  br label %57

57:                                               ; preds = %37
  br label %58

58:                                               ; preds = %57
  %59 = load ptr, ptr %9, align 8, !tbaa !16
  %60 = load ptr, ptr %11, align 8, !tbaa !18
  %61 = getelementptr inbounds nuw %struct.H5O_drvinfo_t, ptr %60, i32 0, i32 3
  %62 = load ptr, ptr %61, align 8, !tbaa !35
  %63 = load ptr, ptr %11, align 8, !tbaa !18
  %64 = getelementptr inbounds nuw %struct.H5O_drvinfo_t, ptr %63, i32 0, i32 2
  %65 = load i64, ptr %64, align 8, !tbaa !26
  call void @llvm.memcpy.p0.p0.i64(ptr align 1 %59, ptr align 1 %62, i64 %65, i1 false)
  br label %66

66:                                               ; preds = %58, %20
  call void @llvm.lifetime.end.p0(i64 8, ptr %11) #8
  ret i32 0
}