; Function Attrs: mustprogress nofree norecurse nosync nounwind willreturn memory(readwrite, inaccessiblemem: none) uwtable
define internal noundef i32 @H5O__drvinfo_encode(ptr readnone captures(none) %0, i1 zeroext %1, i64 %2, ptr noundef writeonly captures(none) %3, ptr noundef readonly captures(none) %4) #1 {
  %6 = load i8, ptr @H5O_init_g, align 1, !tbaa !3, !range !7, !noundef !8
  %7 = trunc nuw i8 %6 to i1
  %8 = load i8, ptr @H5_libterm_g, align 1, !range !7
  %9 = trunc nuw i8 %8 to i1
  %10 = xor i1 %9, true
  %11 = select i1 %7, i1 true, i1 %10
  br i1 %11, label %12, label %28, !prof !9

12:                                               ; preds = %5
  %13 = getelementptr inbounds nuw i8, ptr %3, i64 1
  store i8 0, ptr %3, align 1, !tbaa !12
  %14 = getelementptr inbounds nuw i8, ptr %4, i64 248
  %15 = load i64, ptr %14, align 8
  store i64 %15, ptr %13, align 1
  %16 = getelementptr inbounds nuw i8, ptr %3, i64 9
  %17 = getelementptr inbounds nuw i8, ptr %4, i64 264
  %18 = load i64, ptr %17, align 8, !tbaa !13
  %19 = trunc i64 %18 to i8
  store i8 %19, ptr %16, align 1, !tbaa !12
  %20 = getelementptr inbounds nuw i8, ptr %3, i64 10
  %21 = load i64, ptr %17, align 8, !tbaa !13
  %22 = lshr i64 %21, 8
  %23 = trunc i64 %22 to i8
  store i8 %23, ptr %20, align 1, !tbaa !12
  %24 = getelementptr inbounds nuw i8, ptr %3, i64 11
  %25 = getelementptr inbounds nuw i8, ptr %4, i64 272
  %26 = load ptr, ptr %25, align 8, !tbaa !25
  %27 = load i64, ptr %17, align 8, !tbaa !13
  tail call void @llvm.memcpy.p0.p0.i64(ptr nonnull align 1 %24, ptr align 1 %26, i64 %27, i1 false)
  br label %28

28:                                               ; preds = %12, %5
  ret i32 0
}